; Function Attrs: mustprogress nounwind uwtable
define dso_local void @_ZN4llvm9DwarfUnit13addSourceLineERNS_3DIEEPKNS_7DILabelE(ptr noundef nonnull align 8 dereferenceable(328) %0, ptr noundef nonnull align 8 dereferenceable(48) %1, ptr noundef %2) local_unnamed_addr #0 align 2 {
  %4 = getelementptr inbounds nuw i8, ptr %2, i64 4
  %5 = load i32, ptr %4, align 4
  %6 = getelementptr inbounds i8, ptr %2, i64 -16
  %7 = load i64, ptr %6, align 8
  %8 = and i64 %7, 2
  %.not.i.i.i.i = icmp eq i64 %8, 0
  br i1 %.not.i.i.i.i, label %13, label %9

9:                                                ; preds = %3
  %10 = getelementptr inbounds i8, ptr %2, i64 -32
  %11 = load ptr, ptr %10, align 8
  %12 = tail call noundef i64 @_ZNK4llvm15SmallVectorBaseIjE4sizeEv(ptr noundef nonnull align 8 dereferenceable(16) %10) #19
  br label %_ZNK4llvm7DILabel7getFileEv.exit

13:                                               ; preds = %3
  %14 = lshr i64 %7, 2
  %15 = and i64 %14, 15
  %16 = sub nsw i64 0, %15
  %17 = getelementptr inbounds %"class.llvm::MDOperand", ptr %6, i64 %16
  br label %_ZNK4llvm7DILabel7getFileEv.exit

_ZNK4llvm7DILabel7getFileEv.exit:                 ; preds = %9, %13
  %.sroa.0.0.i.i.i.i = phi ptr [ %17, %13 ], [ %11, %9 ]
  %18 = getelementptr inbounds i8, ptr %.sroa.0.0.i.i.i.i, i64 16
  %19 = load ptr, ptr %18, align 8
  tail call void @_ZN4llvm9DwarfUnit13addSourceLineERNS_3DIEEjPKNS_6DIFileE(ptr noundef nonnull align 8 dereferenceable(328) %0, ptr noundef nonnull align 8 dereferenceable(48) %1, i32 noundef %5, ptr noundef %19)
  ret void
}